; Function Attrs: mustprogress nofree norecurse nosync nounwind willreturn memory(read, inaccessiblemem: none) uwtable
define dso_local noundef ptr @_ZNK4absl4Cord20MaybeGetCrcCordStateEv(ptr noundef nonnull readonly align 8 captures(none) dereferenceable(16) %0) local_unnamed_addr #9 align 2 {
  %2 = load i8, ptr %0, align 8, !tbaa !13
  %3 = and i8 %2, 1
  %.not = icmp eq i8 %3, 0
  br i1 %.not, label %11, label %4

4:                                                ; preds = %1
  %5 = getelementptr inbounds nuw i8, ptr %0, i64 8
  %6 = load ptr, ptr %5, align 8
  %7 = getelementptr inbounds nuw i8, ptr %6, i64 12
  %8 = load i8, ptr %7, align 4, !tbaa !23
  %9 = icmp eq i8 %8, 2
  %10 = getelementptr inbounds nuw i8, ptr %6, i64 24
  %spec.select = select i1 %9, ptr %10, ptr null
  br label %11

11:                                               ; preds = %4, %1
  %.0 = phi ptr [ null, %1 ], [ %spec.select, %4 ]
  ret ptr %.0
}